target datalayout = "e-m:e-p270:32:32-p271:32:32-p272:64:64-i64:64-i128:128-f80:128-n8:16:32:64-S128"
target triple = "x86_64-pc-linux-gnu"

%"class.clang::SourceLocation" = type { i32 }
%"class.clang::Decl" = type <{ ptr, %"class.llvm::PointerIntPair.980", %"class.llvm::PointerUnion", %"class.clang::SourceLocation", i32, i8, [7 x i8] }>
%"class.llvm::PointerIntPair.980" = type { %"struct.llvm::detail::PunnedPointer.981" }
%"struct.llvm::detail::PunnedPointer.981" = type { [8 x i8] }
%"class.llvm::PointerUnion" = type { %"class.llvm::pointer_union_detail::PointerUnionMembers" }
%"class.llvm::pointer_union_detail::PointerUnionMembers" = type { %"class.llvm::pointer_union_detail::PointerUnionMembers.982" }
%"class.llvm::pointer_union_detail::PointerUnionMembers.982" = type { %"class.llvm::pointer_union_detail::PointerUnionMembers.983" }
%"class.llvm::pointer_union_detail::PointerUnionMembers.983" = type { %"class.llvm::PointerIntPair.984" }
%"class.llvm::PointerIntPair.984" = type { %"struct.llvm::detail::PunnedPointer.985" }
%"struct.llvm::detail::PunnedPointer.985" = type { [8 x i8] }
%"class.llvm::iterator_range" = type { %"class.clang::DeclContext::decl_iterator", %"class.clang::DeclContext::decl_iterator" }
%"class.clang::DeclContext::decl_iterator" = type { ptr }

; Function Attrs: mustprogress nounwind uwtable
define linkonce_odr hidden noundef ptr @_ZN4llvm21PointerLikeTypeTraitsIPN5clang4DeclEE18getFromVoidPointerEPv(ptr noundef %0) #0 comdat align 2 {
  %2 = alloca ptr, align 8
  store ptr %0, ptr %2, align 8
  %3 = load ptr, ptr %2, align 8
  ret ptr %3
}

; Function Attrs: mustprogress nounwind uwtable
define linkonce_odr hidden noundef i64 @_ZNK4llvm6detail13PunnedPointerIPN5clang4DeclEE5asIntEv(ptr noundef nonnull align 8 dereferenceable(8) %0) #0 comdat align 2 {
  %2 = alloca ptr, align 8
  %3 = alloca i64, align 8
  store ptr %0, ptr %2, align 8
  %4 = load ptr, ptr %2, align 8
  store i64 0, ptr %3, align 8
  %5 = getelementptr inbounds nuw %"struct.llvm::detail::PunnedPointer.981", ptr %4, i32 0, i32 0
  %6 = getelementptr inbounds [8 x i8], ptr %5, i64 0, i64 0
  call void @llvm.memcpy.p0.p0.i64(ptr align 8 %3, ptr align 8 %6, i64 8, i1 false)
  %7 = load i64, ptr %3, align 8
  ret i64 %7
}

; Function Attrs: mustprogress nounwind uwtable
define linkonce_odr hidden noundef ptr @_ZN4llvm18PointerIntPairInfoIPN5clang4DeclELj3ENS_21PointerLikeTypeTraitsIS3_EEE10getPointerEl(i64 noundef %0) #0 comdat align 2 {
  %2 = alloca i64, align 8
  store i64 %0, ptr %2, align 8
  %3 = load i64, ptr %2, align 8
  %4 = and i64 %3, -8
  %5 = inttoptr i64 %4 to ptr
  %6 = call noundef ptr @_ZN4llvm21PointerLikeTypeTraitsIPN5clang4DeclEE18getFromVoidPointerEPv(ptr noundef %5)
  ret ptr %6
}

; Function Attrs: mustprogress nounwind uwtable
define linkonce_odr hidden noundef i64 @_ZNK4llvm6detail13PunnedPointerIPN5clang4DeclEEcvlEv(ptr noundef nonnull align 8 dereferenceable(8) %0) #0 comdat align 2 {
  %2 = alloca ptr, align 8
  store ptr %0, ptr %2, align 8
  %3 = load ptr, ptr %2, align 8
  %4 = call noundef i64 @_ZNK4llvm6detail13PunnedPointerIPN5clang4DeclEE5asIntEv(ptr noundef nonnull align 8 dereferenceable(8) %3)
  ret i64 %4
}

; Function Attrs: mustprogress nounwind uwtable
define linkonce_odr hidden noundef ptr @_ZNK4llvm14PointerIntPairIPN5clang4DeclELj3ENS2_19ModuleOwnershipKindENS_21PointerLikeTypeTraitsIS3_EENS_18PointerIntPairInfoIS3_Lj3ES6_EEE10getPointerEv(ptr noundef nonnull align 8 dereferenceable(8) %0) #0 comdat align 2 {
  %2 = alloca ptr, align 8
  store ptr %0, ptr %2, align 8
  %3 = load ptr, ptr %2, align 8
  %4 = getelementptr inbounds nuw %"class.llvm::PointerIntPair.980", ptr %3, i32 0, i32 0
  %5 = call noundef i64 @_ZNK4llvm6detail13PunnedPointerIPN5clang4DeclEEcvlEv(ptr noundef nonnull align 8 dereferenceable(8) %4)
  %6 = call noundef ptr @_ZN4llvm18PointerIntPairInfoIPN5clang4DeclELj3ENS_21PointerLikeTypeTraitsIS3_EEE10getPointerEl(i64 noundef %5)
  ret ptr %6
}

; Function Attrs: mustprogress nounwind uwtable
define linkonce_odr hidden void @_ZN5clang11DeclContext13decl_iteratorC2Ev(ptr noundef nonnull align 8 dereferenceable(8) %0) unnamed_addr #0 comdat align 2 {
  %2 = alloca ptr, align 8
  store ptr %0, ptr %2, align 8
  %3 = load ptr, ptr %2, align 8
  %4 = getelementptr inbounds nuw %"class.clang::DeclContext::decl_iterator", ptr %3, i32 0, i32 0
  store ptr null, ptr %4, align 8
  ret void
}

; Function Attrs: mustprogress nounwind uwtable
define linkonce_odr hidden noundef ptr @_ZN5clang4Decl20getNextDeclInContextEv(ptr noundef nonnull align 8 dereferenceable(33) %0) #0 comdat align 2 {
  %2 = alloca ptr, align 8
  store ptr %0, ptr %2, align 8
  %3 = load ptr, ptr %2, align 8
  %4 = getelementptr inbounds nuw %"class.clang::Decl", ptr %3, i32 0, i32 1
  %5 = call noundef ptr @_ZNK4llvm14PointerIntPairIPN5clang4DeclELj3ENS2_19ModuleOwnershipKindENS_21PointerLikeTypeTraitsIS3_EENS_18PointerIntPairInfoIS3_Lj3ES6_EEE10getPointerEv(ptr noundef nonnull align 8 dereferenceable(8) %4)
  ret ptr %5
}

; Function Attrs: mustprogress nounwind uwtable
define linkonce_odr hidden void @_ZN4llvm14iterator_rangeIN5clang11DeclContext13decl_iteratorEEC2ES3_S3_(ptr noundef nonnull align 8 dereferenceable(16) %0, ptr %1, ptr %2) unnamed_addr #0 comdat align 2 {
  %4 = alloca %"class.clang::DeclContext::decl_iterator", align 8
  %5 = alloca %"class.clang::DeclContext::decl_iterator", align 8
  %6 = alloca ptr, align 8
  %7 = getelementptr inbounds nuw %"class.clang::DeclContext::decl_iterator", ptr %4, i32 0, i32 0
  store ptr %1, ptr %7, align 8
  %8 = getelementptr inbounds nuw %"class.clang::DeclContext::decl_iterator", ptr %5, i32 0, i32 0
  store ptr %2, ptr %8, align 8
  store ptr %0, ptr %6, align 8
  %9 = load ptr, ptr %6, align 8
  %10 = getelementptr inbounds nuw %"class.llvm::iterator_range", ptr %9, i32 0, i32 0
  call void @llvm.memcpy.p0.p0.i64(ptr align 8 %10, ptr align 8 %4, i64 8, i1 false)
  %11 = getelementptr inbounds nuw %"class.llvm::iterator_range", ptr %9, i32 0, i32 1
  call void @llvm.memcpy.p0.p0.i64(ptr align 8 %11, ptr align 8 %5, i64 8, i1 false)
  ret void
}

; Function Attrs: mustprogress nounwind uwtable
define linkonce_odr hidden ptr @_ZNK5clang11DeclContext9decls_endEv(ptr noundef nonnull align 8 dereferenceable(32) %0) #0 comdat align 2 {
  %2 = alloca %"class.clang::DeclContext::decl_iterator", align 8
  %3 = alloca ptr, align 8
  store ptr %0, ptr %3, align 8
  call void @llvm.memset.p0.i64(ptr align 8 %2, i8 0, i64 8, i1 false)
  call void @_ZN5clang11DeclContext13decl_iteratorC2Ev(ptr noundef nonnull align 8 dereferenceable(8) %2) #12
  %4 = getelementptr inbounds nuw %"class.clang::DeclContext::decl_iterator", ptr %2, i32 0, i32 0
  %5 = load ptr, ptr %4, align 8
  ret ptr %5
}

; Function Attrs: mustprogress nounwind uwtable
define linkonce_odr hidden noundef nonnull align 8 dereferenceable(8) ptr @_ZN5clang11DeclContext13decl_iteratorppEv(ptr noundef nonnull align 8 dereferenceable(8) %0) #0 comdat align 2 {
  %2 = alloca ptr, align 8
  store ptr %0, ptr %2, align 8
  %3 = load ptr, ptr %2, align 8
  %4 = getelementptr inbounds nuw %"class.clang::DeclContext::decl_iterator", ptr %3, i32 0, i32 0
  %5 = load ptr, ptr %4, align 8
  %6 = call noundef ptr @_ZN5clang4Decl20getNextDeclInContextEv(ptr noundef nonnull align 8 dereferenceable(33) %5)
  %7 = getelementptr inbounds nuw %"class.clang::DeclContext::decl_iterator", ptr %3, i32 0, i32 0
  store ptr %6, ptr %7, align 8
  ret ptr %3
}

; Function Attrs: mustprogress nounwind uwtable
define linkonce_odr hidden noundef nonnull align 8 dereferenceable(8) ptr @_ZNK5clang11DeclContext13decl_iteratordeEv(ptr noundef nonnull align 8 dereferenceable(8) %0) #0 comdat align 2 {
  %2 = alloca ptr, align 8
  store ptr %0, ptr %2, align 8
  %3 = load ptr, ptr %2, align 8
  %4 = getelementptr inbounds nuw %"class.clang::DeclContext::decl_iterator", ptr %3, i32 0, i32 0
  ret ptr %4
}

; Function Attrs: mustprogress nounwind uwtable
define linkonce_odr hidden noundef zeroext i1 @_ZN5clangneENS_11DeclContext13decl_iteratorES1_(ptr %0, ptr %1) #0 comdat {
  %3 = alloca %"class.clang::DeclContext::decl_iterator", align 8
  %4 = alloca %"class.clang::DeclContext::decl_iterator", align 8
  %5 = getelementptr inbounds nuw %"class.clang::DeclContext::decl_iterator", ptr %3, i32 0, i32 0
  store ptr %0, ptr %5, align 8
  %6 = getelementptr inbounds nuw %"class.clang::DeclContext::decl_iterator", ptr %4, i32 0, i32 0
  store ptr %1, ptr %6, align 8
  %7 = getelementptr inbounds nuw %"class.clang::DeclContext::decl_iterator", ptr %3, i32 0, i32 0
  %8 = load ptr, ptr %7, align 8
  %9 = getelementptr inbounds nuw %"class.clang::DeclContext::decl_iterator", ptr %4, i32 0, i32 0
  %10 = load ptr, ptr %9, align 8
  %11 = icmp ne ptr %8, %10
  ret i1 %11
}

; Function Attrs: mustprogress nounwind uwtable
define linkonce_odr hidden ptr @_ZNK4llvm14iterator_rangeIN5clang11DeclContext13decl_iteratorEE3endEv(ptr noundef nonnull align 8 dereferenceable(16) %0) #0 comdat align 2 {
  %2 = alloca %"class.clang::DeclContext::decl_iterator", align 8
  %3 = alloca ptr, align 8
  store ptr %0, ptr %3, align 8
  %4 = load ptr, ptr %3, align 8
  %5 = getelementptr inbounds nuw %"class.llvm::iterator_range", ptr %4, i32 0, i32 1
  call void @llvm.memcpy.p0.p0.i64(ptr align 8 %2, ptr align 8 %5, i64 8, i1 false)
  %6 = getelementptr inbounds nuw %"class.clang::DeclContext::decl_iterator", ptr %2, i32 0, i32 0
  %7 = load ptr, ptr %6, align 8
  ret ptr %7
}

; Function Attrs: mustprogress nounwind uwtable
define linkonce_odr hidden ptr @_ZNK4llvm14iterator_rangeIN5clang11DeclContext13decl_iteratorEE5beginEv(ptr noundef nonnull align 8 dereferenceable(16) %0) #0 comdat align 2 {
  %2 = alloca %"class.clang::DeclContext::decl_iterator", align 8
  %3 = alloca ptr, align 8
  store ptr %0, ptr %3, align 8
  %4 = load ptr, ptr %3, align 8
  %5 = getelementptr inbounds nuw %"class.llvm::iterator_range", ptr %4, i32 0, i32 0
  call void @llvm.memcpy.p0.p0.i64(ptr align 8 %2, ptr align 8 %5, i64 8, i1 false)
  %6 = getelementptr inbounds nuw %"class.clang::DeclContext::decl_iterator", ptr %2, i32 0, i32 0
  %7 = load ptr, ptr %6, align 8
  ret ptr %7
}

; Function Attrs: mustprogress nounwind uwtable
define linkonce_odr hidden { ptr, ptr } @_ZNK5clang11DeclContext5declsEv(ptr noundef nonnull align 8 dereferenceable(32) %0) #0 comdat align 2 {
  %2 = alloca %"class.llvm::iterator_range", align 8
  %3 = alloca ptr, align 8
  %4 = alloca %"class.clang::DeclContext::decl_iterator", align 8
  %5 = alloca %"class.clang::DeclContext::decl_iterator", align 8
  store ptr %0, ptr %3, align 8
  %6 = load ptr, ptr %3, align 8
  %7 = call ptr @_ZNK5clang11DeclContext11decls_beginEv(ptr noundef nonnull align 8 dereferenceable(32) %6)
  %8 = getelementptr inbounds nuw %"class.clang::DeclContext::decl_iterator", ptr %4, i32 0, i32 0
  store ptr %7, ptr %8, align 8
  %9 = call ptr @_ZNK5clang11DeclContext9decls_endEv(ptr noundef nonnull align 8 dereferenceable(32) %6)
  %10 = getelementptr inbounds nuw %"class.clang::DeclContext::decl_iterator", ptr %5, i32 0, i32 0
  store ptr %9, ptr %10, align 8
  %11 = getelementptr inbounds nuw %"class.clang::DeclContext::decl_iterator", ptr %4, i32 0, i32 0
  %12 = load ptr, ptr %11, align 8
  %13 = getelementptr inbounds nuw %"class.clang::DeclContext::decl_iterator", ptr %5, i32 0, i32 0
  %14 = load ptr, ptr %13, align 8
  call void @_ZN4llvm14iterator_rangeIN5clang11DeclContext13decl_iteratorEEC2ES3_S3_(ptr noundef nonnull align 8 dereferenceable(16) %2, ptr %12, ptr %14)
  %15 = load { ptr, ptr }, ptr %2, align 8
  ret { ptr, ptr } %15
}

; Function Attrs: mustprogress nounwind uwtable
define internal noundef zeroext i1 @_ZL24checkExportedDeclContextRN5clang4SemaEPNS_11DeclContextENS_14SourceLocationE(ptr noundef nonnull align 8 dereferenceable(17560) %0, ptr noundef %1, i32 %2) #0 {
  %4 = alloca %"class.clang::SourceLocation", align 4
  %5 = alloca ptr, align 8
  %6 = alloca ptr, align 8
  %7 = alloca i8, align 1
  %8 = alloca ptr, align 8
  %9 = alloca %"class.llvm::iterator_range", align 8
  %10 = alloca %"class.clang::DeclContext::decl_iterator", align 8
  %11 = alloca %"class.clang::DeclContext::decl_iterator", align 8
  %12 = alloca %"class.clang::DeclContext::decl_iterator", align 8
  %13 = alloca %"class.clang::DeclContext::decl_iterator", align 8
  %14 = alloca ptr, align 8
  %15 = alloca %"class.clang::SourceLocation", align 4
  %16 = getelementptr inbounds nuw %"class.clang::SourceLocation", ptr %4, i32 0, i32 0
  store i32 %2, ptr %16, align 4
  store ptr %0, ptr %5, align 8
  store ptr %1, ptr %6, align 8
  store i8 1, ptr %7, align 1
  %17 = load ptr, ptr %6, align 8
  %18 = call { ptr, ptr } @_ZNK5clang11DeclContext5declsEv(ptr noundef nonnull align 8 dereferenceable(32) %17)
  %19 = getelementptr inbounds nuw { ptr, ptr }, ptr %9, i32 0, i32 0
  %20 = extractvalue { ptr, ptr } %18, 0
  store ptr %20, ptr %19, align 8
  %21 = getelementptr inbounds nuw { ptr, ptr }, ptr %9, i32 0, i32 1
  %22 = extractvalue { ptr, ptr } %18, 1
  store ptr %22, ptr %21, align 8
  store ptr %9, ptr %8, align 8
  %23 = load ptr, ptr %8, align 8
  %24 = call ptr @_ZNK4llvm14iterator_rangeIN5clang11DeclContext13decl_iteratorEE5beginEv(ptr noundef nonnull align 8 dereferenceable(16) %23)
  %25 = getelementptr inbounds nuw %"class.clang::DeclContext::decl_iterator", ptr %10, i32 0, i32 0
  store ptr %24, ptr %25, align 8
  %26 = load ptr, ptr %8, align 8
  %27 = call ptr @_ZNK4llvm14iterator_rangeIN5clang11DeclContext13decl_iteratorEE3endEv(ptr noundef nonnull align 8 dereferenceable(16) %26)
  %28 = getelementptr inbounds nuw %"class.clang::DeclContext::decl_iterator", ptr %11, i32 0, i32 0
  store ptr %27, ptr %28, align 8
  br label %29

29:                                               ; preds = %50, %3
  call void @llvm.memcpy.p0.p0.i64(ptr align 8 %12, ptr align 8 %10, i64 8, i1 false)
  call void @llvm.memcpy.p0.p0.i64(ptr align 8 %13, ptr align 8 %11, i64 8, i1 false)
  %30 = getelementptr inbounds nuw %"class.clang::DeclContext::decl_iterator", ptr %12, i32 0, i32 0
  %31 = load ptr, ptr %30, align 8
  %32 = getelementptr inbounds nuw %"class.clang::DeclContext::decl_iterator", ptr %13, i32 0, i32 0
  %33 = load ptr, ptr %32, align 8
  %34 = call noundef zeroext i1 @_ZN5clangneENS_11DeclContext13decl_iteratorES1_(ptr %31, ptr %33)
  br i1 %34, label %35, label %52

35:                                               ; preds = %29
  %36 = call noundef nonnull align 8 dereferenceable(8) ptr @_ZNK5clang11DeclContext13decl_iteratordeEv(ptr noundef nonnull align 8 dereferenceable(8) %10)
  %37 = load ptr, ptr %36, align 8
  store ptr %37, ptr %14, align 8
  %38 = load ptr, ptr %5, align 8
  %39 = load ptr, ptr %14, align 8
  call void @llvm.memcpy.p0.p0.i64(ptr align 4 %15, ptr align 4 %4, i64 4, i1 false)
  %40 = getelementptr inbounds nuw %"class.clang::SourceLocation", ptr %15, i32 0, i32 0
  %41 = load i32, ptr %40, align 4
  %42 = call noundef zeroext i1 @_ZL17checkExportedDeclRN5clang4SemaEPNS_4DeclENS_14SourceLocationE(ptr noundef nonnull align 8 dereferenceable(17560) %38, ptr noundef %39, i32 %41)
  %43 = zext i1 %42 to i32
  %44 = load i8, ptr %7, align 1
  %45 = trunc i8 %44 to i1
  %46 = zext i1 %45 to i32
  %47 = and i32 %46, %43
  %48 = icmp ne i32 %47, 0
  %49 = zext i1 %48 to i8
  store i8 %49, ptr %7, align 1
  br label %50

50:                                               ; preds = %35
  %51 = call noundef nonnull align 8 dereferenceable(8) ptr @_ZN5clang11DeclContext13decl_iteratorppEv(ptr noundef nonnull align 8 dereferenceable(8) %10)
  br label %29

52:                                               ; preds = %29
  %53 = load i8, ptr %7, align 1
  %54 = trunc i8 %53 to i1
  ret i1 %54
}