; Function Attrs: mustprogress nounwind uwtable
define internal fastcc noundef zeroext i1 @_ZL24checkExportedDeclContextRN5clang4SemaEPNS_11DeclContextENS_14SourceLocationE(ptr noundef nonnull align 8 dereferenceable(17560) %0, ptr noundef nonnull %1, i32 %2) unnamed_addr #0 {
  %4 = tail call ptr @_ZNK5clang11DeclContext11decls_beginEv(ptr noundef nonnull align 8 dereferenceable(32) %1) #16
  %.not13 = icmp eq ptr %4, null
  br i1 %.not13, label %._crit_edge, label %.lr.ph

.lr.ph:                                           ; preds = %3, %.lr.ph
  %.015 = phi i1 [ %6, %.lr.ph ], [ true, %3 ]
  %.sroa.0.014 = phi ptr [ %9, %.lr.ph ], [ %4, %3 ]
  %5 = tail call fastcc noundef zeroext i1 @_ZL17checkExportedDeclRN5clang4SemaEPNS_4DeclENS_14SourceLocationE(ptr noundef nonnull align 8 dereferenceable(17560) %0, ptr noundef nonnull %.sroa.0.014, i32 %2)
  %6 = and i1 %.015, %5
  %7 = getelementptr inbounds nuw i8, ptr %.sroa.0.014, i64 8
  %.0.copyload.i.i.i.i.i = load i64, ptr %7, align 8
  %8 = and i64 %.0.copyload.i.i.i.i.i, -8
  %9 = inttoptr i64 %8 to ptr
  %.not = icmp eq i64 %8, 0
  br i1 %.not, label %._crit_edge, label %.lr.ph

._crit_edge:                                      ; preds = %.lr.ph, %3
  %.0.lcssa = phi i1 [ true, %3 ], [ %6, %.lr.ph ]
  ret i1 %.0.lcssa
}